(dp0
S'rDeployment_rh'
p1
(lp2
S'rrrlbh'
p3
aS'rbhlrr'
p4
aS'rbrlrh'
p5
aS'rrhlbr'
p6
asS'rDeployment_ri'
p7
(lp8
S'rbilrr'
p9
aS'rbrlri'
p10
aS'rrilbr'
p11
aS'rrrlbi'
p12
asS'rDeployment_tt'
p13
(lp14
S'rbilrr'
p15
aS'rbhlrr'
p16
aS'rrrlbi'
p17
aS'rrhlbi'
p18
aS'rrilbr'
p19
aS'rrhlbr'
p20
aS'rbrlrh'
p21
aS'rrrlbh'
p22
aS'rrilbh'
p23
aS'rbhlri'
p24
aS'rbrlri'
p25
aS'rbilrh'
p26
asS'rDeployment_ih'
p27
(lp28
S'rbilrh'
p29
aS'rrhlbi'
p30
aS'rrilbh'
p31
aS'rbhlri'
p32
as.